target datalayout = "e-m:e-p270:32:32-p271:32:32-p272:64:64-i64:64-i128:128-f80:128-n8:16:32:64-S128"
target triple = "x86_64-unknown-linux-gnu"

%"class.std::basic_istream" = type { ptr, i64, %"class.std::basic_ios" }
%"class.std::basic_ios" = type { %"class.std::ios_base", ptr, i8, i8, ptr, ptr, ptr, ptr }
%"class.std::ios_base" = type { ptr, i64, i64, i32, i32, i32, ptr, %"struct.std::ios_base::_Words", [8 x %"struct.std::ios_base::_Words"], i32, ptr, %"class.std::locale" }
%"struct.std::ios_base::_Words" = type { ptr, i64 }
%"class.std::locale" = type { ptr }
%"class.std::basic_ostream" = type { ptr, %"class.std::basic_ios" }
%class.veloxtpFlexLexer = type <{ %class.FlexLexer.base, i32, i32, [4 x i8], ptr, %"class.std::basic_istream", %"class.std::basic_ostream", i8, [3 x i8], i32, ptr, i32, i32, i32, [4 x i8], i64, i64, ptr, i32, [4 x i8], ptr, ptr, ptr, ptr, ptr, i32, i32, i32, i32, i32, i32, i32, [4 x i8] }>
%class.FlexLexer.base = type <{ ptr, ptr, i32, i32, i32 }>
%class.FlexLexer = type <{ ptr, ptr, i32, i32, i32, [4 x i8] }>
%struct.yy_buffer_state = type { ptr, ptr, ptr, i32, i32, i32, i32, i32, i32, i32, i32, i32 }

; Function Attrs: mustprogress uwtable
define void @_ZN16veloxtpFlexLexer20yy_load_buffer_stateEv(ptr noundef nonnull align 8 dereferenceable(732) %this) #5 align 2 {
entry:
  %this.addr = alloca ptr, align 8
  store ptr %this, ptr %this.addr, align 8
  %this1 = load ptr, ptr %this.addr, align 8
  %yy_buffer_stack = getelementptr inbounds %class.veloxtpFlexLexer, ptr %this1, i32 0, i32 17
  %0 = load ptr, ptr %yy_buffer_stack, align 8
  %yy_buffer_stack_top = getelementptr inbounds %class.veloxtpFlexLexer, ptr %this1, i32 0, i32 15
  %1 = load i64, ptr %yy_buffer_stack_top, align 8
  %arrayidx = getelementptr inbounds ptr, ptr %0, i64 %1
  %2 = load ptr, ptr %arrayidx, align 8
  %yy_n_chars = getelementptr inbounds %struct.yy_buffer_state, ptr %2, i32 0, i32 4
  %3 = load i32, ptr %yy_n_chars, align 4
  %yy_n_chars2 = getelementptr inbounds %class.veloxtpFlexLexer, ptr %this1, i32 0, i32 9
  store i32 %3, ptr %yy_n_chars2, align 4
  %yy_buffer_stack3 = getelementptr inbounds %class.veloxtpFlexLexer, ptr %this1, i32 0, i32 17
  %4 = load ptr, ptr %yy_buffer_stack3, align 8
  %yy_buffer_stack_top4 = getelementptr inbounds %class.veloxtpFlexLexer, ptr %this1, i32 0, i32 15
  %5 = load i64, ptr %yy_buffer_stack_top4, align 8
  %arrayidx5 = getelementptr inbounds ptr, ptr %4, i64 %5
  %6 = load ptr, ptr %arrayidx5, align 8
  %yy_buf_pos = getelementptr inbounds %struct.yy_buffer_state, ptr %6, i32 0, i32 2
  %7 = load ptr, ptr %yy_buf_pos, align 8
  %yy_c_buf_p = getelementptr inbounds %class.veloxtpFlexLexer, ptr %this1, i32 0, i32 10
  store ptr %7, ptr %yy_c_buf_p, align 8
  %yytext = getelementptr inbounds %class.FlexLexer, ptr %this1, i32 0, i32 1
  store ptr %7, ptr %yytext, align 8
  %yyin = getelementptr inbounds %class.veloxtpFlexLexer, ptr %this1, i32 0, i32 5
  %vtable = load ptr, ptr %yyin, align 8
  %vbase.offset.ptr = getelementptr i8, ptr %vtable, i64 -24
  %vbase.offset = load i64, ptr %vbase.offset.ptr, align 8
  %add.ptr = getelementptr inbounds i8, ptr %yyin, i64 %vbase.offset
  %yy_buffer_stack6 = getelementptr inbounds %class.veloxtpFlexLexer, ptr %this1, i32 0, i32 17
  %8 = load ptr, ptr %yy_buffer_stack6, align 8
  %yy_buffer_stack_top7 = getelementptr inbounds %class.veloxtpFlexLexer, ptr %this1, i32 0, i32 15
  %9 = load i64, ptr %yy_buffer_stack_top7, align 8
  %arrayidx8 = getelementptr inbounds ptr, ptr %8, i64 %9
  %10 = load ptr, ptr %arrayidx8, align 8
  %yy_input_file = getelementptr inbounds %struct.yy_buffer_state, ptr %10, i32 0, i32 0
  %11 = load ptr, ptr %yy_input_file, align 8
  %call = call noundef ptr @_ZNSt9basic_iosIcSt11char_traitsIcEE5rdbufEPSt15basic_streambufIcS1_E(ptr noundef nonnull align 8 dereferenceable(264) %add.ptr, ptr noundef %11)
  %yy_c_buf_p9 = getelementptr inbounds %class.veloxtpFlexLexer, ptr %this1, i32 0, i32 10
  %12 = load ptr, ptr %yy_c_buf_p9, align 8
  %13 = load i8, ptr %12, align 1
  %yy_hold_char = getelementptr inbounds %class.veloxtpFlexLexer, ptr %this1, i32 0, i32 7
  store i8 %13, ptr %yy_hold_char, align 8
  ret void
}