; Function Attrs: mustprogress uwtable
define void @_ZN16veloxtpFlexLexer20yy_load_buffer_stateEv(ptr noundef nonnull align 8 dereferenceable(732) %this) local_unnamed_addr #4 align 2 {
entry:
  %yy_buffer_stack = getelementptr inbounds i8, ptr %this, i64 648
  %0 = load ptr, ptr %yy_buffer_stack, align 8
  %yy_buffer_stack_top = getelementptr inbounds i8, ptr %this, i64 632
  %1 = load i64, ptr %yy_buffer_stack_top, align 8
  %arrayidx = getelementptr inbounds ptr, ptr %0, i64 %1
  %2 = load ptr, ptr %arrayidx, align 8
  %yy_n_chars = getelementptr inbounds i8, ptr %2, i64 28
  %3 = load i32, ptr %yy_n_chars, align 4
  %yy_n_chars2 = getelementptr inbounds i8, ptr %this, i64 604
  store i32 %3, ptr %yy_n_chars2, align 4
  %4 = load ptr, ptr %arrayidx, align 8
  %yy_buf_pos = getelementptr inbounds i8, ptr %4, i64 16
  %5 = load ptr, ptr %yy_buf_pos, align 8
  %yy_c_buf_p = getelementptr inbounds i8, ptr %this, i64 608
  store ptr %5, ptr %yy_c_buf_p, align 8
  %yytext = getelementptr inbounds i8, ptr %this, i64 8
  store ptr %5, ptr %yytext, align 8
  %yyin = getelementptr inbounds i8, ptr %this, i64 48
  %vtable = load ptr, ptr %yyin, align 8
  %vbase.offset.ptr = getelementptr i8, ptr %vtable, i64 -24
  %vbase.offset = load i64, ptr %vbase.offset.ptr, align 8
  %add.ptr = getelementptr inbounds i8, ptr %yyin, i64 %vbase.offset
  %6 = load ptr, ptr %arrayidx, align 8
  %7 = load ptr, ptr %6, align 8
  %call = tail call noundef ptr @_ZNSt9basic_iosIcSt11char_traitsIcEE5rdbufEPSt15basic_streambufIcS1_E(ptr noundef nonnull align 8 dereferenceable(264) %add.ptr, ptr noundef %7)
  %8 = load ptr, ptr %yy_c_buf_p, align 8
  %9 = load i8, ptr %8, align 1
  %yy_hold_char = getelementptr inbounds i8, ptr %this, i64 600
  store i8 %9, ptr %yy_hold_char, align 8
  ret void
}